target datalayout = "e-m:e-p270:32:32-p271:32:32-p272:64:64-i64:64-i128:128-f80:128-n8:16:32:64-S128"
target triple = "x86_64-pc-linux-gnu"

%class.app = type { %class.expr, ptr, i32, %struct.app_flags, [0 x ptr] }
%class.expr = type { %class.ast }
%class.ast = type { i32, i32, i32, i32 }
%struct.app_flags = type <{ i16, i8, i8 }>

; Function Attrs: mustprogress nounwind uwtable
define linkonce_odr hidden noundef i32 @_ZNK3ast8get_kindEv(ptr noundef nonnull align 4 dereferenceable(16) %0) #4 comdat align 2 {
  %2 = alloca ptr, align 8
  store ptr %0, ptr %2, align 8, !tbaa !873
  %3 = load ptr, ptr %2, align 8
  %4 = getelementptr inbounds nuw %class.ast, ptr %3, i32 0, i32 1
  %5 = load i32, ptr %4, align 4
  %6 = and i32 %5, 65535
  ret i32 %6
}

; Function Attrs: mustprogress nounwind uwtable
define linkonce_odr hidden noundef ptr @_ZNK3app7get_argEj(ptr noundef nonnull align 8 dereferenceable(32) %0, i32 noundef %1) #4 comdat align 2 {
  %3 = alloca ptr, align 8
  %4 = alloca i32, align 4
  store ptr %0, ptr %3, align 8, !tbaa !796
  store i32 %1, ptr %4, align 4, !tbaa !8
  %5 = load ptr, ptr %3, align 8
  %6 = getelementptr inbounds nuw %class.app, ptr %5, i32 0, i32 4
  %7 = load i32, ptr %4, align 4, !tbaa !8
  %8 = zext i32 %7 to i64
  %9 = getelementptr inbounds nuw [0 x ptr], ptr %6, i64 0, i64 %8
  %10 = load ptr, ptr %9, align 8, !tbaa !262
  ret ptr %10
}

; Function Attrs: mustprogress nounwind uwtable
define linkonce_odr hidden noundef i32 @_ZNK3app12get_num_argsEv(ptr noundef nonnull align 8 dereferenceable(32) %0) #4 comdat align 2 {
  %2 = alloca ptr, align 8
  store ptr %0, ptr %2, align 8, !tbaa !796
  %3 = load ptr, ptr %2, align 8
  %4 = getelementptr inbounds nuw %class.app, ptr %3, i32 0, i32 2
  %5 = load i32, ptr %4, align 8, !tbaa !800
  ret i32 %5
}

; Function Attrs: inlinehint mustprogress nounwind uwtable
define linkonce_odr hidden noundef ptr @_Z6to_appP3ast(ptr noundef %0) #9 comdat {
  %2 = alloca ptr, align 8
  store ptr %0, ptr %2, align 8, !tbaa !873
  %3 = load ptr, ptr %2, align 8, !tbaa !873
  ret ptr %3
}

; Function Attrs: inlinehint mustprogress nounwind uwtable
define linkonce_odr hidden noundef zeroext i1 @_Z6is_appPK3ast(ptr noundef %0) #9 comdat {
  %2 = alloca ptr, align 8
  store ptr %0, ptr %2, align 8, !tbaa !873
  %3 = load ptr, ptr %2, align 8, !tbaa !873
  %4 = call noundef i32 @_ZNK3ast8get_kindEv(ptr noundef nonnull align 4 dereferenceable(16) %3)
  %5 = icmp eq i32 %4, 0
  ret i1 %5
}

; Function Attrs: mustprogress uwtable
define hidden noundef zeroext i1 @_ZN3smt10theory_str23term_appears_as_subtermEP4exprS2_(ptr noundef nonnull align 8 dereferenceable(1800) %0, ptr noundef %1, ptr noundef %2) #6 align 2 {
  %4 = alloca i1, align 1
  %5 = alloca ptr, align 8
  %6 = alloca ptr, align 8
  %7 = alloca ptr, align 8
  %8 = alloca ptr, align 8
  %9 = alloca i32, align 4
  %10 = alloca i32, align 4
  %11 = alloca ptr, align 8
  store ptr %0, ptr %5, align 8, !tbaa !28
  store ptr %1, ptr %6, align 8, !tbaa !262
  store ptr %2, ptr %7, align 8, !tbaa !262
  %12 = load ptr, ptr %5, align 8
  %13 = load ptr, ptr %6, align 8, !tbaa !262
  %14 = load ptr, ptr %7, align 8, !tbaa !262
  %15 = call noundef zeroext i1 @_ZN3smt10theory_str11in_same_eqcEP4exprS2_(ptr noundef nonnull align 8 dereferenceable(1800) %12, ptr noundef %13, ptr noundef %14)
  br i1 %15, label %16, label %17

16:                                               ; preds = %3
  store i1 true, ptr %4, align 1
  br label %51

17:                                               ; preds = %3
  %18 = load ptr, ptr %7, align 8, !tbaa !262
  %19 = call noundef zeroext i1 @_Z6is_appPK3ast(ptr noundef %18)
  br i1 %19, label %20, label %50

20:                                               ; preds = %17
  call void @llvm.lifetime.start.p0(i64 8, ptr %8) #3
  %21 = load ptr, ptr %7, align 8, !tbaa !262
  %22 = call noundef ptr @_Z6to_appP3ast(ptr noundef %21)
  store ptr %22, ptr %8, align 8, !tbaa !796
  call void @llvm.lifetime.start.p0(i64 4, ptr %9) #3
  store i32 0, ptr %9, align 4, !tbaa !8
  br label %23

23:                                               ; preds = %41, %20
  %24 = load i32, ptr %9, align 4, !tbaa !8
  %25 = load ptr, ptr %8, align 8, !tbaa !796
  %26 = call noundef i32 @_ZNK3app12get_num_argsEv(ptr noundef nonnull align 8 dereferenceable(32) %25)
  %27 = icmp ult i32 %24, %26
  br i1 %27, label %29, label %28

28:                                               ; preds = %23
  store i32 2, ptr %10, align 4
  br label %44

29:                                               ; preds = %23
  call void @llvm.lifetime.start.p0(i64 8, ptr %11) #3
  %30 = load ptr, ptr %8, align 8, !tbaa !796
  %31 = load i32, ptr %9, align 4, !tbaa !8
  %32 = call noundef ptr @_ZNK3app7get_argEj(ptr noundef nonnull align 8 dereferenceable(32) %30, i32 noundef %31)
  store ptr %32, ptr %11, align 8, !tbaa !262
  %33 = load ptr, ptr %6, align 8, !tbaa !262
  %34 = load ptr, ptr %11, align 8, !tbaa !262
  %35 = call noundef zeroext i1 @_ZN3smt10theory_str23term_appears_as_subtermEP4exprS2_(ptr noundef nonnull align 8 dereferenceable(1800) %12, ptr noundef %33, ptr noundef %34)
  br i1 %35, label %36, label %37

36:                                               ; preds = %29
  store i1 true, ptr %4, align 1
  store i32 1, ptr %10, align 4
  br label %38

37:                                               ; preds = %29
  store i32 0, ptr %10, align 4
  br label %38

38:                                               ; preds = %37, %36
  call void @llvm.lifetime.end.p0(i64 8, ptr %11) #3
  %39 = load i32, ptr %10, align 4
  switch i32 %39, label %44 [
    i32 0, label %40
  ]

40:                                               ; preds = %38
  br label %41

41:                                               ; preds = %40
  %42 = load i32, ptr %9, align 4, !tbaa !8
  %43 = add i32 %42, 1
  store i32 %43, ptr %9, align 4, !tbaa !8
  br label %23, !llvm.loop !1085

44:                                               ; preds = %38, %28
  call void @llvm.lifetime.end.p0(i64 4, ptr %9) #3
  %45 = load i32, ptr %10, align 4
  switch i32 %45, label %47 [
    i32 2, label %46
  ]

46:                                               ; preds = %44
  store i32 0, ptr %10, align 4
  br label %47

47:                                               ; preds = %46, %44
  call void @llvm.lifetime.end.p0(i64 8, ptr %8) #3
  %48 = load i32, ptr %10, align 4
  switch i32 %48, label %53 [
    i32 0, label %49
    i32 1, label %51
  ]

49:                                               ; preds = %47
  br label %50

50:                                               ; preds = %49, %17
  store i1 false, ptr %4, align 1
  br label %51

51:                                               ; preds = %50, %47, %16
  %52 = load i1, ptr %4, align 1
  ret i1 %52

53:                                               ; preds = %47
  unreachable
}