; Function Attrs: mustprogress uwtable
define hidden noundef zeroext i1 @_ZN3smt10theory_str23term_appears_as_subtermEP4exprS2_(ptr noundef nonnull readonly align 8 captures(none) dereferenceable(1800) %0, ptr noundef %1, ptr noundef %2) local_unnamed_addr #4 align 2 {
  %4 = tail call noundef zeroext i1 @_ZN3smt10theory_str11in_same_eqcEP4exprS2_(ptr noundef nonnull align 8 dereferenceable(1800) %0, ptr noundef %1, ptr noundef %2)
  br i1 %4, label %.thread, label %5

5:                                                ; preds = %3
  %6 = getelementptr inbounds nuw i8, ptr %2, i64 4
  %7 = load i32, ptr %6, align 4
  %8 = and i32 %7, 65535
  %9 = icmp eq i32 %8, 0
  br i1 %9, label %.preheader, label %.thread

.preheader:                                       ; preds = %5
  %10 = getelementptr inbounds nuw i8, ptr %2, i64 24
  %11 = load i32, ptr %10, align 8, !tbaa !847
  %.not20.not = icmp eq i32 %11, 0
  br i1 %.not20.not, label %.thread, label %.lr.ph

.lr.ph:                                           ; preds = %.preheader
  %12 = getelementptr inbounds nuw i8, ptr %2, i64 32
  br label %16

13:                                               ; preds = %16
  %indvars.iv.next = add nuw nsw i64 %indvars.iv, 1
  %14 = load i32, ptr %10, align 8, !tbaa !847
  %15 = zext i32 %14 to i64
  %.not = icmp samesign ult i64 %indvars.iv.next, %15
  br i1 %.not, label %16, label %.thread, !llvm.loop !1370

16:                                               ; preds = %.lr.ph, %13
  %indvars.iv = phi i64 [ 0, %.lr.ph ], [ %indvars.iv.next, %13 ]
  %17 = getelementptr inbounds nuw [0 x ptr], ptr %12, i64 0, i64 %indvars.iv
  %18 = load ptr, ptr %17, align 8, !tbaa !337
  %19 = tail call noundef zeroext i1 @_ZN3smt10theory_str23term_appears_as_subtermEP4exprS2_(ptr noundef nonnull align 8 dereferenceable(1800) %0, ptr noundef %1, ptr noundef %18)
  br i1 %19, label %.thread, label %13

.thread:                                          ; preds = %16, %13, %.preheader, %5, %3
  %.0 = phi i1 [ true, %3 ], [ false, %5 ], [ false, %.preheader ], [ %19, %13 ], [ %19, %16 ]
  ret i1 %.0
}